target datalayout = "e-m:e-p270:32:32-p271:32:32-p272:64:64-i64:64-i128:128-f80:128-n8:16:32:64-S128"
target triple = "x86_64-pc-linux-gnu"

%"class.std::fpos" = type { i64, %struct.__mbstate_t }
%struct.__mbstate_t = type { i32, %union.anon }
%union.anon = type { i32 }
%"class.LIEF::vector_iostream" = type <{ %"class.std::vector", %"class.std::fpos", %"class.std::vector.0", ptr, i8, [7 x i8] }>
%"class.std::vector" = type { %"struct.std::_Vector_base" }
%"struct.std::_Vector_base" = type { %"struct.std::_Vector_base<std::vector<unsigned long>, std::allocator<std::vector<unsigned long>>>::_Vector_impl" }
%"struct.std::_Vector_base<std::vector<unsigned long>, std::allocator<std::vector<unsigned long>>>::_Vector_impl" = type { %"struct.std::_Vector_base<std::vector<unsigned long>, std::allocator<std::vector<unsigned long>>>::_Vector_impl_data" }
%"struct.std::_Vector_base<std::vector<unsigned long>, std::allocator<std::vector<unsigned long>>>::_Vector_impl_data" = type { ptr, ptr, ptr }
%"class.std::vector.0" = type { %"struct.std::_Vector_base.1" }
%"struct.std::_Vector_base.1" = type { %"struct.std::_Vector_base<unsigned char, std::allocator<unsigned char>>::_Vector_impl" }
%"struct.std::_Vector_base<unsigned char, std::allocator<unsigned char>>::_Vector_impl" = type { %"struct.std::_Vector_base<unsigned char, std::allocator<unsigned char>>::_Vector_impl_data" }
%"struct.std::_Vector_base<unsigned char, std::allocator<unsigned char>>::_Vector_impl_data" = type { ptr, ptr, ptr }

; Function Attrs: mustprogress nounwind uwtable
define linkonce_odr hidden noundef ptr @_ZNKSt6vectorIhSaIhEE11_M_data_ptrIhEEPT_S4_(ptr noundef nonnull align 8 dereferenceable(24) %0, ptr noundef %1) #0 comdat align 2 {
  %3 = alloca ptr, align 8
  %4 = alloca ptr, align 8
  store ptr %0, ptr %3, align 8, !tbaa !35
  store ptr %1, ptr %4, align 8, !tbaa !42
  %5 = load ptr, ptr %4, align 8, !tbaa !42
  ret ptr %5
}

; Function Attrs: mustprogress nounwind uwtable
define linkonce_odr hidden noundef nonnull align 8 dereferenceable(16) ptr @_ZNSt4fposI11__mbstate_tEpLEl(ptr noundef nonnull align 8 dereferenceable(16) %0, i64 noundef %1) #0 comdat align 2 {
  %3 = alloca ptr, align 8
  %4 = alloca i64, align 8
  store ptr %0, ptr %3, align 8, !tbaa !39
  store i64 %1, ptr %4, align 8, !tbaa !3
  %5 = load ptr, ptr %3, align 8
  %6 = load i64, ptr %4, align 8, !tbaa !3
  %7 = getelementptr inbounds nuw %"class.std::fpos", ptr %5, i32 0, i32 0
  %8 = load i64, ptr %7, align 8, !tbaa !41
  %9 = add nsw i64 %8, %6
  store i64 %9, ptr %7, align 8, !tbaa !41
  ret ptr %5
}

; Function Attrs: mustprogress nounwind uwtable
define linkonce_odr hidden noundef ptr @_ZNSt6vectorIhSaIhEE4dataEv(ptr noundef nonnull align 8 dereferenceable(24) %0) #0 comdat align 2 {
  %2 = alloca ptr, align 8
  store ptr %0, ptr %2, align 8, !tbaa !35
  %3 = load ptr, ptr %2, align 8
  %4 = getelementptr inbounds nuw %"struct.std::_Vector_base.1", ptr %3, i32 0, i32 0
  %5 = getelementptr inbounds nuw %"struct.std::_Vector_base<unsigned char, std::allocator<unsigned char>>::_Vector_impl_data", ptr %4, i32 0, i32 0
  %6 = load ptr, ptr %5, align 8, !tbaa !37
  %7 = call noundef ptr @_ZNKSt6vectorIhSaIhEE11_M_data_ptrIhEEPT_S4_(ptr noundef nonnull align 8 dereferenceable(24) %3, ptr noundef %6) #10
  ret ptr %7
}

; Function Attrs: mustprogress nounwind uwtable
define linkonce_odr hidden noundef i64 @_ZNKSt4fposI11__mbstate_tEcvlEv(ptr noundef nonnull align 8 dereferenceable(16) %0) #0 comdat align 2 {
  %2 = alloca ptr, align 8
  store ptr %0, ptr %2, align 8, !tbaa !39
  %3 = load ptr, ptr %2, align 8
  %4 = getelementptr inbounds nuw %"class.std::fpos", ptr %3, i32 0, i32 0
  %5 = load i64, ptr %4, align 8, !tbaa !41
  ret i64 %5
}

; Function Attrs: mustprogress nounwind uwtable
define linkonce_odr hidden { i64, i64 } @_ZNK4LIEF15vector_iostream5tellpEv(ptr noundef nonnull align 8 dereferenceable(73) %0) #0 comdat align 2 {
  %2 = alloca %"class.std::fpos", align 8
  %3 = alloca ptr, align 8
  store ptr %0, ptr %3, align 8, !tbaa !16
  %4 = load ptr, ptr %3, align 8
  %5 = getelementptr inbounds nuw %"class.LIEF::vector_iostream", ptr %4, i32 0, i32 1
  call void @llvm.memcpy.p0.p0.i64(ptr align 8 %2, ptr align 8 %5, i64 16, i1 false), !tbaa.struct !38
  %6 = load { i64, i64 }, ptr %2, align 8
  ret { i64, i64 } %6
}

; Function Attrs: mustprogress nounwind uwtable
define linkonce_odr hidden noundef nonnull align 8 dereferenceable(73) ptr @_ZN4LIEF15vector_iostream5writeIhvEERS0_RKT_(ptr noundef nonnull align 8 dereferenceable(73) %0, ptr noundef nonnull align 1 dereferenceable(1) %1) #0 comdat align 2 {
  %3 = alloca ptr, align 8
  %4 = alloca ptr, align 8
  %5 = alloca i64, align 8
  %6 = alloca %"class.std::fpos", align 8
  %7 = alloca i8, align 1
  store ptr %0, ptr %3, align 8, !tbaa !16
  store ptr %1, ptr %4, align 8, !tbaa !42
  %8 = load ptr, ptr %3, align 8
  call void @llvm.lifetime.start.p0(i64 8, ptr %5) #10
  call void @llvm.lifetime.start.p0(i64 16, ptr %6) #10
  %9 = call { i64, i64 } @_ZNK4LIEF15vector_iostream5tellpEv(ptr noundef nonnull align 8 dereferenceable(73) %8)
  %10 = getelementptr inbounds nuw { i64, i64 }, ptr %6, i32 0, i32 0
  %11 = extractvalue { i64, i64 } %9, 0
  store i64 %11, ptr %10, align 8
  %12 = getelementptr inbounds nuw { i64, i64 }, ptr %6, i32 0, i32 1
  %13 = extractvalue { i64, i64 } %9, 1
  store i64 %13, ptr %12, align 8
  %14 = call noundef i64 @_ZNKSt4fposI11__mbstate_tEcvlEv(ptr noundef nonnull align 8 dereferenceable(16) %6)
  call void @llvm.lifetime.end.p0(i64 16, ptr %6) #10
  store i64 %14, ptr %5, align 8, !tbaa !3
  %15 = getelementptr inbounds nuw %"class.LIEF::vector_iostream", ptr %8, i32 0, i32 3
  %16 = load ptr, ptr %15, align 8, !tbaa !20
  %17 = call noundef i64 @_ZNKSt6vectorIhSaIhEE4sizeEv(ptr noundef nonnull align 8 dereferenceable(24) %16) #10
  %18 = load i64, ptr %5, align 8, !tbaa !3
  %19 = add i64 %18, 1
  %20 = icmp ult i64 %17, %19
  br i1 %20, label %21, label %26

21:                                               ; preds = %2
  %22 = getelementptr inbounds nuw %"class.LIEF::vector_iostream", ptr %8, i32 0, i32 3
  %23 = load ptr, ptr %22, align 8, !tbaa !20
  %24 = load i64, ptr %5, align 8, !tbaa !3
  %25 = add i64 %24, 1
  call void @_ZNSt6vectorIhSaIhEE6resizeEm(ptr noundef nonnull align 8 dereferenceable(24) %23, i64 noundef %25)
  br label %26

26:                                               ; preds = %21, %2
  %27 = getelementptr inbounds nuw %"class.LIEF::vector_iostream", ptr %8, i32 0, i32 4
  %28 = load i8, ptr %27, align 8, !tbaa !44, !range !13, !noundef !14
  %29 = trunc i8 %28 to i1
  br i1 %29, label %30, label %38

30:                                               ; preds = %26
  call void @llvm.lifetime.start.p0(i64 1, ptr %7) #10
  %31 = load ptr, ptr %4, align 8, !tbaa !42
  %32 = load i8, ptr %31, align 1, !tbaa !19
  store i8 %32, ptr %7, align 1, !tbaa !19
  call void @_ZN4LIEF11swap_endianIhEEvPT_(ptr noundef %7)
  %33 = getelementptr inbounds nuw %"class.LIEF::vector_iostream", ptr %8, i32 0, i32 3
  %34 = load ptr, ptr %33, align 8, !tbaa !20
  %35 = call noundef ptr @_ZNSt6vectorIhSaIhEE4dataEv(ptr noundef nonnull align 8 dereferenceable(24) %34) #10
  %36 = load i64, ptr %5, align 8, !tbaa !3
  %37 = getelementptr inbounds nuw i8, ptr %35, i64 %36
  call void @llvm.memcpy.p0.p0.i64(ptr align 1 %37, ptr align 1 %7, i64 1, i1 false)
  call void @llvm.lifetime.end.p0(i64 1, ptr %7) #10
  br label %45

38:                                               ; preds = %26
  %39 = getelementptr inbounds nuw %"class.LIEF::vector_iostream", ptr %8, i32 0, i32 3
  %40 = load ptr, ptr %39, align 8, !tbaa !20
  %41 = call noundef ptr @_ZNSt6vectorIhSaIhEE4dataEv(ptr noundef nonnull align 8 dereferenceable(24) %40) #10
  %42 = load i64, ptr %5, align 8, !tbaa !3
  %43 = getelementptr inbounds nuw i8, ptr %41, i64 %42
  %44 = load ptr, ptr %4, align 8, !tbaa !42
  call void @llvm.memcpy.p0.p0.i64(ptr align 1 %43, ptr align 1 %44, i64 1, i1 false)
  br label %45

45:                                               ; preds = %38, %30
  %46 = getelementptr inbounds nuw %"class.LIEF::vector_iostream", ptr %8, i32 0, i32 1
  %47 = call noundef nonnull align 8 dereferenceable(16) ptr @_ZNSt4fposI11__mbstate_tEpLEl(ptr noundef nonnull align 8 dereferenceable(16) %46, i64 noundef 1)
  call void @llvm.lifetime.end.p0(i64 8, ptr %5) #10
  ret ptr %8
}

; Function Attrs: mustprogress nounwind uwtable
define linkonce_odr hidden noundef i64 @_ZNKSt6vectorIhSaIhEE4sizeEv(ptr noundef nonnull align 8 dereferenceable(24) %0) #0 comdat align 2 {
  %2 = alloca ptr, align 8
  store ptr %0, ptr %2, align 8, !tbaa !35
  %3 = load ptr, ptr %2, align 8
  %4 = getelementptr inbounds nuw %"struct.std::_Vector_base.1", ptr %3, i32 0, i32 0
  %5 = getelementptr inbounds nuw %"struct.std::_Vector_base<unsigned char, std::allocator<unsigned char>>::_Vector_impl_data", ptr %4, i32 0, i32 1
  %6 = load ptr, ptr %5, align 8, !tbaa !36
  %7 = getelementptr inbounds nuw %"struct.std::_Vector_base.1", ptr %3, i32 0, i32 0
  %8 = getelementptr inbounds nuw %"struct.std::_Vector_base<unsigned char, std::allocator<unsigned char>>::_Vector_impl_data", ptr %7, i32 0, i32 0
  %9 = load ptr, ptr %8, align 8, !tbaa !37
  %10 = ptrtoint ptr %6 to i64
  %11 = ptrtoint ptr %9 to i64
  %12 = sub i64 %10, %11
  ret i64 %12
}

; Function Attrs: mustprogress nounwind uwtable
define hidden noundef nonnull align 8 dereferenceable(73) ptr @_ZN4LIEF15vector_iostream5alignEmh(ptr noundef nonnull align 8 dereferenceable(73) %0, i64 noundef %1, i8 noundef zeroext %2) #0 align 2 {
  %4 = alloca ptr, align 8
  %5 = alloca ptr, align 8
  %6 = alloca i64, align 8
  %7 = alloca i8, align 1
  store ptr %0, ptr %5, align 8, !tbaa !16
  store i64 %1, ptr %6, align 8, !tbaa !3
  store i8 %2, ptr %7, align 1, !tbaa !19
  %8 = load ptr, ptr %5, align 8
  %9 = getelementptr inbounds nuw %"class.LIEF::vector_iostream", ptr %8, i32 0, i32 3
  %10 = load ptr, ptr %9, align 8, !tbaa !20
  %11 = call noundef i64 @_ZNKSt6vectorIhSaIhEE4sizeEv(ptr noundef nonnull align 8 dereferenceable(24) %10) #10
  %12 = load i64, ptr %6, align 8, !tbaa !3
  %13 = urem i64 %11, %12
  %14 = icmp eq i64 %13, 0
  br i1 %14, label %15, label %16

15:                                               ; preds = %3
  store ptr %8, ptr %4, align 8
  br label %27

16:                                               ; preds = %3
  br label %17

17:                                               ; preds = %24, %16
  %18 = getelementptr inbounds nuw %"class.LIEF::vector_iostream", ptr %8, i32 0, i32 3
  %19 = load ptr, ptr %18, align 8, !tbaa !20
  %20 = call noundef i64 @_ZNKSt6vectorIhSaIhEE4sizeEv(ptr noundef nonnull align 8 dereferenceable(24) %19) #10
  %21 = load i64, ptr %6, align 8, !tbaa !3
  %22 = urem i64 %20, %21
  %23 = icmp ne i64 %22, 0
  br i1 %23, label %24, label %26

24:                                               ; preds = %17
  %25 = call noundef nonnull align 8 dereferenceable(73) ptr @_ZN4LIEF15vector_iostream5writeIhvEERS0_RKT_(ptr noundef nonnull align 8 dereferenceable(73) %8, ptr noundef nonnull align 1 dereferenceable(1) %7)
  br label %17, !llvm.loop !55

26:                                               ; preds = %17
  store ptr %8, ptr %4, align 8
  br label %27

27:                                               ; preds = %26, %15
  %28 = load ptr, ptr %4, align 8
  ret ptr %28
}