; Function Attrs: mustprogress nounwind uwtable
define hidden noundef nonnull align 8 dereferenceable(73) ptr @_ZN4LIEF15vector_iostream5alignEmh(ptr noundef nonnull returned align 8 dereferenceable(73) %0, i64 noundef %1, i8 noundef zeroext %2) local_unnamed_addr #2 align 2 {
  %4 = alloca i8, align 1
  %5 = getelementptr inbounds nuw i8, ptr %0, i64 64
  %6 = load ptr, ptr %5, align 8, !tbaa !6
  %7 = getelementptr inbounds nuw i8, ptr %6, i64 8
  %8 = load ptr, ptr %7, align 8, !tbaa !27
  %9 = load ptr, ptr %6, align 8, !tbaa !28
  %10 = ptrtoint ptr %8 to i64
  %11 = ptrtoint ptr %9 to i64
  %12 = sub i64 %10, %11
  %13 = urem i64 %12, %1
  %14 = icmp eq i64 %13, 0
  br i1 %14, label %.loopexit, label %.lr.ph

.lr.ph:                                           ; preds = %3
  %15 = getelementptr inbounds nuw i8, ptr %0, i64 24
  %16 = getelementptr inbounds nuw i8, ptr %0, i64 72
  %.sroa.0.0.copyload.i.i.pre = load i64, ptr %15, align 8, !tbaa !29
  br label %17

17:                                               ; preds = %.lr.ph, %_ZN4LIEF15vector_iostream5writeIhvEERS0_RKT_.exit
  %.sroa.0.0.copyload.i.i = phi i64 [ %.sroa.0.0.copyload.i.i.pre, %.lr.ph ], [ %36, %_ZN4LIEF15vector_iostream5writeIhvEERS0_RKT_.exit ]
  %18 = phi i64 [ %12, %.lr.ph ], [ %43, %_ZN4LIEF15vector_iostream5writeIhvEERS0_RKT_.exit ]
  %19 = phi ptr [ %6, %.lr.ph ], [ %37, %_ZN4LIEF15vector_iostream5writeIhvEERS0_RKT_.exit ]
  %20 = add i64 %.sroa.0.0.copyload.i.i, 1
  %21 = icmp ult i64 %18, %20
  br i1 %21, label %22, label %23

22:                                               ; preds = %17
  call void @_ZNSt6vectorIhSaIhEE6resizeEm(ptr noundef nonnull align 8 dereferenceable(24) %19, i64 noundef %20)
  br label %23

23:                                               ; preds = %22, %17
  %24 = load i8, ptr %16, align 8, !tbaa !33, !range !34, !noundef !35
  %25 = trunc nuw i8 %24 to i1
  br i1 %25, label %26, label %31

26:                                               ; preds = %23
  call void @llvm.lifetime.start.p0(i64 1, ptr nonnull %4) #15
  store i8 %2, ptr %4, align 1, !tbaa !30
  call void @_ZN4LIEF11swap_endianIhEEvPT_(ptr noundef nonnull %4) #15
  %27 = load ptr, ptr %5, align 8, !tbaa !6
  %28 = load ptr, ptr %27, align 8, !tbaa !28
  %29 = getelementptr inbounds nuw i8, ptr %28, i64 %.sroa.0.0.copyload.i.i
  %30 = load i8, ptr %4, align 1
  store i8 %30, ptr %29, align 1
  call void @llvm.lifetime.end.p0(i64 1, ptr nonnull %4) #15
  br label %_ZN4LIEF15vector_iostream5writeIhvEERS0_RKT_.exit

31:                                               ; preds = %23
  %32 = load ptr, ptr %5, align 8, !tbaa !6
  %33 = load ptr, ptr %32, align 8, !tbaa !28
  %34 = getelementptr inbounds nuw i8, ptr %33, i64 %.sroa.0.0.copyload.i.i
  store i8 %2, ptr %34, align 1
  br label %_ZN4LIEF15vector_iostream5writeIhvEERS0_RKT_.exit

_ZN4LIEF15vector_iostream5writeIhvEERS0_RKT_.exit: ; preds = %26, %31
  %35 = load i64, ptr %15, align 8, !tbaa !31
  %36 = add nsw i64 %35, 1
  store i64 %36, ptr %15, align 8, !tbaa !31
  %37 = load ptr, ptr %5, align 8, !tbaa !6
  %38 = getelementptr inbounds nuw i8, ptr %37, i64 8
  %39 = load ptr, ptr %38, align 8, !tbaa !27
  %40 = load ptr, ptr %37, align 8, !tbaa !28
  %41 = ptrtoint ptr %39 to i64
  %42 = ptrtoint ptr %40 to i64
  %43 = sub i64 %41, %42
  %44 = urem i64 %43, %1
  %.not = icmp eq i64 %44, 0
  br i1 %.not, label %.loopexit, label %17, !llvm.loop !43

.loopexit:                                        ; preds = %_ZN4LIEF15vector_iostream5writeIhvEERS0_RKT_.exit, %3
  ret ptr %0
}